target datalayout = "e-m:e-p270:32:32-p271:32:32-p272:64:64-i64:64-i128:128-f80:128-n8:16:32:64-S128"
target triple = "x86_64-pc-linux-gnu"

; Function Attrs: inlinehint nounwind uwtable
define internal i32 @Abc_InfoMask(i32 noundef %0) #4 {
  %2 = alloca i32, align 4
  store i32 %0, ptr %2, align 4, !tbaa !8
  %3 = load i32, ptr %2, align 4, !tbaa !8
  %4 = sub nsw i32 32, %3
  %5 = lshr i32 -1, %4
  ret i32 %5
}

; Function Attrs: nounwind uwtable
define i32 @Gem_GroupVarRemove(i32 noundef %0, i32 noundef %1) #0 {
  %3 = alloca i32, align 4
  %4 = alloca i32, align 4
  %5 = alloca i32, align 4
  store i32 %0, ptr %3, align 4, !tbaa !8
  store i32 %1, ptr %4, align 4, !tbaa !8
  call void @llvm.lifetime.start.p0(i64 4, ptr %5) #13
  %6 = load i32, ptr %4, align 4, !tbaa !8
  %7 = icmp ne i32 %6, 0
  br i1 %7, label %8, label %11

8:                                                ; preds = %2
  %9 = load i32, ptr %4, align 4, !tbaa !8
  %10 = call i32 @Abc_InfoMask(i32 noundef %9)
  br label %12

11:                                               ; preds = %2
  br label %12

12:                                               ; preds = %11, %8
  %13 = phi i32 [ %10, %8 ], [ 0, %11 ]
  store i32 %13, ptr %5, align 4, !tbaa !8
  %14 = load i32, ptr %3, align 4, !tbaa !8
  %15 = load i32, ptr %5, align 4, !tbaa !8
  %16 = and i32 %14, %15
  %17 = load i32, ptr %3, align 4, !tbaa !8
  %18 = load i32, ptr %5, align 4, !tbaa !8
  %19 = xor i32 %18, -1
  %20 = and i32 %17, %19
  %21 = ashr i32 %20, 1
  %22 = or i32 %16, %21
  call void @llvm.lifetime.end.p0(i64 4, ptr %5) #13
  ret i32 %22
}