; Function Attrs: mustprogress nofree norecurse nosync nounwind willreturn memory(none) uwtable
define i32 @Gem_GroupVarRemove(i32 noundef %0, i32 noundef %1) local_unnamed_addr #11 {
  %.not = icmp eq i32 %1, 0
  %3 = sub nsw i32 32, %1
  %4 = lshr i32 -1, %3
  %5 = select i1 %.not, i32 0, i32 %4
  %6 = and i32 %5, %0
  %7 = xor i32 %5, -1
  %8 = and i32 %0, %7
  %9 = ashr i32 %8, 1
  %10 = or i32 %9, %6
  ret i32 %10
}